                              1 ;--------------------------------------------------------
                              2 ; File Created by SDCC : free open source ANSI-C Compiler
                              3 ; Version 4.0.0 #11528 (MINGW32)
                              4 ;--------------------------------------------------------
                              5 	.module C__Users_Mills_AppData_Local_Temp_lcc69801
                              6 	.optsdcc -mgbz80
                              7 	
                              8 ;--------------------------------------------------------
                              9 ; Public variables in this module
                             10 ;--------------------------------------------------------
                             11 	.globl _Homer_Run
                             12 	.globl _Homer_Set
                             13 	.globl _move_sprite
                             14 	.globl _set_sprite_prop
                             15 	.globl _set_sprite_data
                             16 	.globl _set_bkg_tiles
                             17 	.globl _set_bkg_data
                             18 	.globl _set_sprite_palette
                             19 	.globl _set_bkg_palette
                             20 	.globl _Frame
                             21 	.globl _Wave
                             22 	.globl _YC
                             23 	.globl _HSPEED
                             24 	.globl _CSPEED
                             25 	.globl _HSX2
                             26 	.globl _HSX1
                             27 	.globl _HSX
                             28 	.globl _Homer_SpritesCGB1
                             29 ;--------------------------------------------------------
                             30 ; special function registers
                             31 ;--------------------------------------------------------
                             32 ;--------------------------------------------------------
                             33 ; ram data
                             34 ;--------------------------------------------------------
                             35 	.area _DATA
   0000                      36 _HSX::
   0000                      37 	.ds 2
   0002                      38 _HSX1::
   0002                      39 	.ds 2
   0004                      40 _HSX2::
   0004                      41 	.ds 2
   0006                      42 _CSPEED::
   0006                      43 	.ds 2
   0008                      44 _HSPEED::
   0008                      45 	.ds 2
   000A                      46 _YC::
   000A                      47 	.ds 2
   000C                      48 _Wave::
   000C                      49 	.ds 80
   005C                      50 _Frame::
   005C                      51 	.ds 2
                             52 ;--------------------------------------------------------
                             53 ; absolute external ram data
                             54 ;--------------------------------------------------------
                             55 	.area _DABS (ABS)
                             56 ;--------------------------------------------------------
                             57 ; global & static initialisations
                             58 ;--------------------------------------------------------
                             59 	.area _HOME
                             60 	.area _GSINIT
                             61 	.area _GSFINAL
                             62 	.area _GSINIT
                             63 ;src/4_Homer.b3.c:25: int HSX = 0;
   0000 21r00r00             64 	ld	hl, #_HSX
   0003 36 00                65 	ld	(hl), #0x00
   0005 23                   66 	inc	hl
   0006 36 00                67 	ld	(hl), #0x00
                             68 ;src/4_Homer.b3.c:26: int HSX1 = 0;
   0008 21r02r00             69 	ld	hl, #_HSX1
   000B 36 00                70 	ld	(hl), #0x00
   000D 23                   71 	inc	hl
   000E 36 00                72 	ld	(hl), #0x00
                             73 ;src/4_Homer.b3.c:27: int HSX2 = 0;
   0010 21r04r00             74 	ld	hl, #_HSX2
   0013 36 00                75 	ld	(hl), #0x00
   0015 23                   76 	inc	hl
   0016 36 00                77 	ld	(hl), #0x00
                             78 ;src/4_Homer.b3.c:28: int CSPEED = 0;
   0018 21r06r00             79 	ld	hl, #_CSPEED
   001B 36 00                80 	ld	(hl), #0x00
   001D 23                   81 	inc	hl
   001E 36 00                82 	ld	(hl), #0x00
                             83 ;src/4_Homer.b3.c:29: int HSPEED = 0;
   0020 21r08r00             84 	ld	hl, #_HSPEED
   0023 36 00                85 	ld	(hl), #0x00
   0025 23                   86 	inc	hl
   0026 36 00                87 	ld	(hl), #0x00
                             88 ;src/4_Homer.b3.c:30: int YC = -10;
   0028 21r0Ar00             89 	ld	hl, #_YC
   002B 36 F6                90 	ld	(hl), #0xf6
   002D 23                   91 	inc	hl
   002E 36 FF                92 	ld	(hl), #0xff
                             93 ;src/4_Homer.b3.c:31: int Wave[] = 
   0030 21r0Cr00             94 	ld	hl, #_Wave
   0033 AF                   95 	xor	a, a
   0034 22                   96 	ld	(hl+), a
   0035 77                   97 	ld	(hl), a
   0036 21r0Er00             98 	ld	hl, #(_Wave + 0x0002)
   0039 36 FF                99 	ld	(hl), #0xff
   003B 23                  100 	inc	hl
   003C 36 FF               101 	ld	(hl), #0xff
   003E 21r10r00            102 	ld	hl, #(_Wave + 0x0004)
   0041 36 FE               103 	ld	(hl), #0xfe
   0043 23                  104 	inc	hl
   0044 36 FF               105 	ld	(hl), #0xff
   0046 21r12r00            106 	ld	hl, #(_Wave + 0x0006)
   0049 36 FE               107 	ld	(hl), #0xfe
   004B 23                  108 	inc	hl
   004C 36 FF               109 	ld	(hl), #0xff
   004E 21r14r00            110 	ld	hl, #(_Wave + 0x0008)
   0051 36 FD               111 	ld	(hl), #0xfd
   0053 23                  112 	inc	hl
   0054 36 FF               113 	ld	(hl), #0xff
   0056 21r16r00            114 	ld	hl, #(_Wave + 0x000a)
   0059 36 FD               115 	ld	(hl), #0xfd
   005B 23                  116 	inc	hl
   005C 36 FF               117 	ld	(hl), #0xff
   005E 21r18r00            118 	ld	hl, #(_Wave + 0x000c)
   0061 36 FD               119 	ld	(hl), #0xfd
   0063 23                  120 	inc	hl
   0064 36 FF               121 	ld	(hl), #0xff
   0066 21r1Ar00            122 	ld	hl, #(_Wave + 0x000e)
   0069 36 FE               123 	ld	(hl), #0xfe
   006B 23                  124 	inc	hl
   006C 36 FF               125 	ld	(hl), #0xff
   006E 21r1Cr00            126 	ld	hl, #(_Wave + 0x0010)
   0071 36 FE               127 	ld	(hl), #0xfe
   0073 23                  128 	inc	hl
   0074 36 FF               129 	ld	(hl), #0xff
   0076 21r1Er00            130 	ld	hl, #(_Wave + 0x0012)
   0079 36 FF               131 	ld	(hl), #0xff
   007B 23                  132 	inc	hl
   007C 36 FF               133 	ld	(hl), #0xff
   007E 21r20r00            134 	ld	hl, #(_Wave + 0x0014)
   0081 AF                  135 	xor	a, a
   0082 22                  136 	ld	(hl+), a
   0083 77                  137 	ld	(hl), a
   0084 21r22r00            138 	ld	hl, #(_Wave + 0x0016)
   0087 36 01               139 	ld	(hl), #0x01
   0089 23                  140 	inc	hl
   008A 36 00               141 	ld	(hl), #0x00
   008C 21r24r00            142 	ld	hl, #(_Wave + 0x0018)
   008F 36 02               143 	ld	(hl), #0x02
   0091 23                  144 	inc	hl
   0092 36 00               145 	ld	(hl), #0x00
   0094 21r26r00            146 	ld	hl, #(_Wave + 0x001a)
   0097 36 02               147 	ld	(hl), #0x02
   0099 23                  148 	inc	hl
   009A 36 00               149 	ld	(hl), #0x00
   009C 21r28r00            150 	ld	hl, #(_Wave + 0x001c)
   009F 36 03               151 	ld	(hl), #0x03
   00A1 23                  152 	inc	hl
   00A2 36 00               153 	ld	(hl), #0x00
   00A4 21r2Ar00            154 	ld	hl, #(_Wave + 0x001e)
   00A7 36 03               155 	ld	(hl), #0x03
   00A9 23                  156 	inc	hl
   00AA 36 00               157 	ld	(hl), #0x00
   00AC 21r2Cr00            158 	ld	hl, #(_Wave + 0x0020)
   00AF 36 03               159 	ld	(hl), #0x03
   00B1 23                  160 	inc	hl
   00B2 36 00               161 	ld	(hl), #0x00
   00B4 21r2Er00            162 	ld	hl, #(_Wave + 0x0022)
   00B7 36 02               163 	ld	(hl), #0x02
   00B9 23                  164 	inc	hl
   00BA 36 00               165 	ld	(hl), #0x00
   00BC 21r30r00            166 	ld	hl, #(_Wave + 0x0024)
   00BF 36 02               167 	ld	(hl), #0x02
   00C1 23                  168 	inc	hl
   00C2 36 00               169 	ld	(hl), #0x00
   00C4 21r32r00            170 	ld	hl, #(_Wave + 0x0026)
   00C7 36 01               171 	ld	(hl), #0x01
   00C9 23                  172 	inc	hl
   00CA 36 00               173 	ld	(hl), #0x00
   00CC 21r34r00            174 	ld	hl, #(_Wave + 0x0028)
   00CF AF                  175 	xor	a, a
   00D0 22                  176 	ld	(hl+), a
   00D1 77                  177 	ld	(hl), a
   00D2 21r36r00            178 	ld	hl, #(_Wave + 0x002a)
   00D5 36 FF               179 	ld	(hl), #0xff
   00D7 23                  180 	inc	hl
   00D8 36 FF               181 	ld	(hl), #0xff
   00DA 21r38r00            182 	ld	hl, #(_Wave + 0x002c)
   00DD 36 FE               183 	ld	(hl), #0xfe
   00DF 23                  184 	inc	hl
   00E0 36 FF               185 	ld	(hl), #0xff
   00E2 21r3Ar00            186 	ld	hl, #(_Wave + 0x002e)
   00E5 36 FE               187 	ld	(hl), #0xfe
   00E7 23                  188 	inc	hl
   00E8 36 FF               189 	ld	(hl), #0xff
   00EA 21r3Cr00            190 	ld	hl, #(_Wave + 0x0030)
   00ED 36 FD               191 	ld	(hl), #0xfd
   00EF 23                  192 	inc	hl
   00F0 36 FF               193 	ld	(hl), #0xff
   00F2 21r3Er00            194 	ld	hl, #(_Wave + 0x0032)
   00F5 36 FD               195 	ld	(hl), #0xfd
   00F7 23                  196 	inc	hl
   00F8 36 FF               197 	ld	(hl), #0xff
   00FA 21r40r00            198 	ld	hl, #(_Wave + 0x0034)
   00FD 36 FD               199 	ld	(hl), #0xfd
   00FF 23                  200 	inc	hl
   0100 36 FF               201 	ld	(hl), #0xff
   0102 21r42r00            202 	ld	hl, #(_Wave + 0x0036)
   0105 36 FE               203 	ld	(hl), #0xfe
   0107 23                  204 	inc	hl
   0108 36 FF               205 	ld	(hl), #0xff
   010A 21r44r00            206 	ld	hl, #(_Wave + 0x0038)
   010D 36 FE               207 	ld	(hl), #0xfe
   010F 23                  208 	inc	hl
   0110 36 FF               209 	ld	(hl), #0xff
   0112 21r46r00            210 	ld	hl, #(_Wave + 0x003a)
   0115 36 FF               211 	ld	(hl), #0xff
   0117 23                  212 	inc	hl
   0118 36 FF               213 	ld	(hl), #0xff
   011A 21r48r00            214 	ld	hl, #(_Wave + 0x003c)
   011D AF                  215 	xor	a, a
   011E 22                  216 	ld	(hl+), a
   011F 77                  217 	ld	(hl), a
   0120 21r4Ar00            218 	ld	hl, #(_Wave + 0x003e)
   0123 36 01               219 	ld	(hl), #0x01
   0125 23                  220 	inc	hl
   0126 36 00               221 	ld	(hl), #0x00
   0128 21r4Cr00            222 	ld	hl, #(_Wave + 0x0040)
   012B 36 02               223 	ld	(hl), #0x02
   012D 23                  224 	inc	hl
   012E 36 00               225 	ld	(hl), #0x00
   0130 21r4Er00            226 	ld	hl, #(_Wave + 0x0042)
   0133 36 02               227 	ld	(hl), #0x02
   0135 23                  228 	inc	hl
   0136 36 00               229 	ld	(hl), #0x00
   0138 21r50r00            230 	ld	hl, #(_Wave + 0x0044)
   013B 36 03               231 	ld	(hl), #0x03
   013D 23                  232 	inc	hl
   013E 36 00               233 	ld	(hl), #0x00
   0140 21r52r00            234 	ld	hl, #(_Wave + 0x0046)
   0143 36 03               235 	ld	(hl), #0x03
   0145 23                  236 	inc	hl
   0146 36 00               237 	ld	(hl), #0x00
   0148 21r54r00            238 	ld	hl, #(_Wave + 0x0048)
   014B 36 03               239 	ld	(hl), #0x03
   014D 23                  240 	inc	hl
   014E 36 00               241 	ld	(hl), #0x00
   0150 21r56r00            242 	ld	hl, #(_Wave + 0x004a)
   0153 36 02               243 	ld	(hl), #0x02
   0155 23                  244 	inc	hl
   0156 36 00               245 	ld	(hl), #0x00
   0158 21r58r00            246 	ld	hl, #(_Wave + 0x004c)
   015B 36 02               247 	ld	(hl), #0x02
   015D 23                  248 	inc	hl
   015E 36 00               249 	ld	(hl), #0x00
   0160 21r5Ar00            250 	ld	hl, #(_Wave + 0x004e)
   0163 36 01               251 	ld	(hl), #0x01
   0165 23                  252 	inc	hl
   0166 36 00               253 	ld	(hl), #0x00
                            254 ;src/4_Homer.b3.c:35: int Frame = 0;
   0168 21r5Cr00            255 	ld	hl, #_Frame
   016B 36 00               256 	ld	(hl), #0x00
   016D 23                  257 	inc	hl
   016E 36 00               258 	ld	(hl), #0x00
                            259 ;--------------------------------------------------------
                            260 ; Home
                            261 ;--------------------------------------------------------
                            262 	.area _HOME
                            263 	.area _HOME
                            264 ;--------------------------------------------------------
                            265 ; code
                            266 ;--------------------------------------------------------
                            267 	.area _CODE_3
                            268 ;src/4_Homer.b3.c:37: void Homer_Set(){
                            269 ;	---------------------------------
                            270 ; Function Homer_Set
                            271 ; ---------------------------------
   0000                     272 _Homer_Set::
                            273 ;src/4_Homer.b3.c:38: HIDE_SPRITES;
   0000 F0r00               274 	ldh	a, (_LCDC_REG+0)
   0002 E6 FD               275 	and	a, #0xfd
   0004 E0r00               276 	ldh	(_LCDC_REG+0),a
                            277 ;src/4_Homer.b3.c:39: VBK_REG = 0;	   
   0006 3E 00               278 	ld	a, #0x00
   0008 E0r00               279 	ldh	(_VBK_REG+0),a
                            280 ;src/4_Homer.b3.c:40: set_bkg_tiles( 0, 0, 20, 20, Homer_MapPLN0); //maptiles
   000A 21r00r00            281 	ld	hl, #_Homer_MapPLN0
   000D E5                  282 	push	hl
   000E 3E 14               283 	ld	a, #0x14
   0010 F5                  284 	push	af
   0011 33                  285 	inc	sp
   0012 3E 14               286 	ld	a, #0x14
   0014 F5                  287 	push	af
   0015 33                  288 	inc	sp
   0016 AF                  289 	xor	a, a
   0017 F5                  290 	push	af
   0018 33                  291 	inc	sp
   0019 AF                  292 	xor	a, a
   001A F5                  293 	push	af
   001B 33                  294 	inc	sp
   001C CDr00r00            295 	call	_set_bkg_tiles
   001F E8 06               296 	add	sp, #6
                            297 ;src/4_Homer.b3.c:41: set_bkg_data(0, 200, Homer_Tiles); //tile bank 1
   0021 21r00r00            298 	ld	hl, #_Homer_Tiles
   0024 E5                  299 	push	hl
   0025 3E C8               300 	ld	a, #0xc8
   0027 F5                  301 	push	af
   0028 33                  302 	inc	sp
   0029 AF                  303 	xor	a, a
   002A F5                  304 	push	af
   002B 33                  305 	inc	sp
   002C CDr00r00            306 	call	_set_bkg_data
   002F E8 04               307 	add	sp, #4
                            308 ;src/4_Homer.b3.c:42: set_sprite_data(0, 80, Homer_Sprites); ///Sprites
   0031 21r00r00            309 	ld	hl, #_Homer_Sprites
   0034 E5                  310 	push	hl
   0035 3E 50               311 	ld	a, #0x50
   0037 F5                  312 	push	af
   0038 33                  313 	inc	sp
   0039 AF                  314 	xor	a, a
   003A F5                  315 	push	af
   003B 33                  316 	inc	sp
   003C CDr00r00            317 	call	_set_sprite_data
   003F E8 04               318 	add	sp, #4
                            319 ;src/4_Homer.b3.c:43: VBK_REG = 1;	   
   0041 3E 01               320 	ld	a, #0x01
   0043 E0r00               321 	ldh	(_VBK_REG+0),a
                            322 ;src/4_Homer.b3.c:44: set_bkg_tiles( 0, 0, 20, 20, Homer_MapPLN1); //map colours 
   0045 21r00r00            323 	ld	hl, #_Homer_MapPLN1
   0048 E5                  324 	push	hl
   0049 3E 14               325 	ld	a, #0x14
   004B F5                  326 	push	af
   004C 33                  327 	inc	sp
   004D 3E 14               328 	ld	a, #0x14
   004F F5                  329 	push	af
   0050 33                  330 	inc	sp
   0051 AF                  331 	xor	a, a
   0052 F5                  332 	push	af
   0053 33                  333 	inc	sp
   0054 AF                  334 	xor	a, a
   0055 F5                  335 	push	af
   0056 33                  336 	inc	sp
   0057 CDr00r00            337 	call	_set_bkg_tiles
   005A E8 06               338 	add	sp, #6
                            339 ;src/4_Homer.b3.c:46: for (v = 0; v<40;v++) set_sprite_prop(v, Homer_SpritesCGB1[v] | 0x80 ); 
   005C 21r00r00            340 	ld	hl, #_v
   005F 36 00               341 	ld	(hl), #0x00
   0061                     342 00102$:
   0061 3ErB8               343 	ld	a, #<(_Homer_SpritesCGB1)
   0063 21r00r00            344 	ld	hl, #_v
   0066 86                  345 	add	a, (hl)
   0067 4F                  346 	ld	c, a
   0068 3Es00               347 	ld	a, #>(_Homer_SpritesCGB1)
   006A CE 00               348 	adc	a, #0x00
   006C 47                  349 	ld	b, a
   006D 0A                  350 	ld	a, (bc)
   006E CB FF               351 	set	7, a
   0070 F5                  352 	push	af
   0071 33                  353 	inc	sp
   0072 7E                  354 	ld	a, (hl)
   0073 F5                  355 	push	af
   0074 33                  356 	inc	sp
   0075 CDr00r00            357 	call	_set_sprite_prop
   0078 E8 02               358 	add	sp, #2
   007A 21r00r00            359 	ld	hl, #_v
   007D 34                  360 	inc	(hl)
   007E 7E                  361 	ld	a, (hl)
   007F D6 28               362 	sub	a, #0x28
   0081 38 DE               363 	jr	C,00102$
                            364 ;src/4_Homer.b3.c:48: VBK_REG = 0;
   0083 3E 00               365 	ld	a, #0x00
   0085 E0r00               366 	ldh	(_VBK_REG+0),a
                            367 ;src/4_Homer.b3.c:50: set_bkg_palette(0, 8, Homer_TilesPAL);
   0087 21r00r00            368 	ld	hl, #_Homer_TilesPAL
   008A E5                  369 	push	hl
   008B 3E 08               370 	ld	a, #0x08
   008D F5                  371 	push	af
   008E 33                  372 	inc	sp
   008F AF                  373 	xor	a, a
   0090 F5                  374 	push	af
   0091 33                  375 	inc	sp
   0092 CDr00r00            376 	call	_set_bkg_palette
   0095 E8 04               377 	add	sp, #4
                            378 ;src/4_Homer.b3.c:51: set_sprite_palette(0, 3, Homer_SpritesPAL);
   0097 21r00r00            379 	ld	hl, #_Homer_SpritesPAL
   009A E5                  380 	push	hl
   009B 3E 03               381 	ld	a, #0x03
   009D F5                  382 	push	af
   009E 33                  383 	inc	sp
   009F AF                  384 	xor	a, a
   00A0 F5                  385 	push	af
   00A1 33                  386 	inc	sp
   00A2 CDr00r00            387 	call	_set_sprite_palette
   00A5 E8 04               388 	add	sp, #4
                            389 ;src/4_Homer.b3.c:53: SHOW_SPRITES;
   00A7 F0r00               390 	ldh	a, (_LCDC_REG+0)
   00A9 F6 02               391 	or	a, #0x02
   00AB E0r00               392 	ldh	(_LCDC_REG+0),a
                            393 ;src/4_Homer.b3.c:54: SHOW_BKG;
   00AD F0r00               394 	ldh	a, (_LCDC_REG+0)
   00AF F6 01               395 	or	a, #0x01
   00B1 E0r00               396 	ldh	(_LCDC_REG+0),a
                            397 ;src/4_Homer.b3.c:56: Scene++;
   00B3 21r00r00            398 	ld	hl, #_Scene
   00B6 34                  399 	inc	(hl)
                            400 ;src/4_Homer.b3.c:57: }
   00B7 C9                  401 	ret
   00B8                     402 _Homer_SpritesCGB1:
   00B8 02                  403 	.db #0x02	; 2
   00B9 02                  404 	.db #0x02	; 2
   00BA 02                  405 	.db #0x02	; 2
   00BB 00                  406 	.db #0x00	; 0
   00BC 00                  407 	.db #0x00	; 0
   00BD 00                  408 	.db #0x00	; 0
   00BE 00                  409 	.db #0x00	; 0
   00BF 00                  410 	.db #0x00	; 0
   00C0 00                  411 	.db #0x00	; 0
   00C1 00                  412 	.db #0x00	; 0
   00C2 00                  413 	.db #0x00	; 0
   00C3 00                  414 	.db #0x00	; 0
   00C4 00                  415 	.db #0x00	; 0
   00C5 00                  416 	.db #0x00	; 0
   00C6 00                  417 	.db #0x00	; 0
   00C7 00                  418 	.db #0x00	; 0
   00C8 00                  419 	.db #0x00	; 0
   00C9 00                  420 	.db #0x00	; 0
   00CA 00                  421 	.db #0x00	; 0
   00CB 01                  422 	.db #0x01	; 1
   00CC 01                  423 	.db #0x01	; 1
   00CD 01                  424 	.db #0x01	; 1
   00CE 01                  425 	.db #0x01	; 1
   00CF 01                  426 	.db #0x01	; 1
   00D0 01                  427 	.db #0x01	; 1
   00D1 01                  428 	.db #0x01	; 1
   00D2 01                  429 	.db #0x01	; 1
   00D3 01                  430 	.db #0x01	; 1
   00D4 01                  431 	.db #0x01	; 1
   00D5 01                  432 	.db #0x01	; 1
   00D6 01                  433 	.db #0x01	; 1
   00D7 01                  434 	.db #0x01	; 1
   00D8 01                  435 	.db #0x01	; 1
   00D9 01                  436 	.db #0x01	; 1
   00DA 01                  437 	.db #0x01	; 1
   00DB 01                  438 	.db #0x01	; 1
   00DC 01                  439 	.db #0x01	; 1
   00DD 01                  440 	.db #0x01	; 1
   00DE 01                  441 	.db #0x01	; 1
   00DF 01                  442 	.db #0x01	; 1
   00E0 02                  443 	.db #0x02	; 2
                            444 ;src/4_Homer.b3.c:59: void Homer_Run(){
                            445 ;	---------------------------------
                            446 ; Function Homer_Run
                            447 ; ---------------------------------
   00E1                     448 _Homer_Run::
                            449 ;src/4_Homer.b3.c:61: HSX++;
   00E1 21r00r00            450 	ld	hl, #_HSX
   00E4 34                  451 	inc	(hl)
   00E5 20 02               452 	jr	NZ,00165$
   00E7 23                  453 	inc	hl
   00E8 34                  454 	inc	(hl)
   00E9                     455 00165$:
                            456 ;src/4_Homer.b3.c:62: if (CSPEED == 4) {CSPEED=0;HSX1++;}
   00E9 21r06r00            457 	ld	hl, #_CSPEED
   00EC 7E                  458 	ld	a, (hl)
   00ED D6 04               459 	sub	a, #0x04
   00EF 23                  460 	inc	hl
   00F0 B6                  461 	or	a, (hl)
   00F1 20 10               462 	jr	NZ,00102$
   00F3 21r06r00            463 	ld	hl, #_CSPEED
   00F6 36 00               464 	ld	(hl), #0x00
   00F8 23                  465 	inc	hl
   00F9 36 00               466 	ld	(hl), #0x00
   00FB 21r02r00            467 	ld	hl, #_HSX1
   00FE 34                  468 	inc	(hl)
   00FF 20 02               469 	jr	NZ,00168$
   0101 23                  470 	inc	hl
   0102 34                  471 	inc	(hl)
   0103                     472 00168$:
   0103                     473 00102$:
                            474 ;src/4_Homer.b3.c:63: CSPEED++;
   0103 21r06r00            475 	ld	hl, #_CSPEED
   0106 34                  476 	inc	(hl)
   0107 20 02               477 	jr	NZ,00169$
   0109 23                  478 	inc	hl
   010A 34                  479 	inc	(hl)
   010B                     480 00169$:
                            481 ;src/4_Homer.b3.c:65: if (Frame == 18) Frame = 0;
   010B 21r5Cr00            482 	ld	hl, #_Frame
   010E 7E                  483 	ld	a, (hl)
   010F D6 12               484 	sub	a, #0x12
   0111 23                  485 	inc	hl
   0112 B6                  486 	or	a, (hl)
   0113 20 08               487 	jr	NZ,00104$
   0115 21r5Cr00            488 	ld	hl, #_Frame
   0118 36 00               489 	ld	(hl), #0x00
   011A 23                  490 	inc	hl
   011B 36 00               491 	ld	(hl), #0x00
   011D                     492 00104$:
                            493 ;src/4_Homer.b3.c:66: SCY_REG = 7+Wave[Frame];
   011D 21r5Dr00            494 	ld	hl, #_Frame + 1
   0120 2B                  495 	dec	hl
   0121 4E                  496 	ld	c, (hl)
   0122 23                  497 	inc	hl
   0123 46                  498 	ld	b, (hl)
   0124 CB 21               499 	sla	c
   0126 CB 10               500 	rl	b
   0128 21r0Cr00            501 	ld	hl, #_Wave
   012B 09                  502 	add	hl, bc
   012C 4D                  503 	ld	c, l
   012D 44                  504 	ld	b, h
   012E 0A                  505 	ld	a, (bc)
   012F C6 07               506 	add	a, #0x07
   0131 E0r00               507 	ldh	(_SCY_REG+0),a
                            508 ;src/4_Homer.b3.c:67: if (HSPEED == 2){HSPEED = 0; Frame++;}
   0133 21r08r00            509 	ld	hl, #_HSPEED
   0136 7E                  510 	ld	a, (hl)
   0137 D6 02               511 	sub	a, #0x02
   0139 23                  512 	inc	hl
   013A B6                  513 	or	a, (hl)
   013B 20 10               514 	jr	NZ,00106$
   013D 21r08r00            515 	ld	hl, #_HSPEED
   0140 36 00               516 	ld	(hl), #0x00
   0142 23                  517 	inc	hl
   0143 36 00               518 	ld	(hl), #0x00
   0145 21r5Cr00            519 	ld	hl, #_Frame
   0148 34                  520 	inc	(hl)
   0149 20 02               521 	jr	NZ,00176$
   014B 23                  522 	inc	hl
   014C 34                  523 	inc	(hl)
   014D                     524 00176$:
   014D                     525 00106$:
                            526 ;src/4_Homer.b3.c:68: HSPEED++;	
   014D 21r08r00            527 	ld	hl, #_HSPEED
   0150 34                  528 	inc	(hl)
   0151 20 02               529 	jr	NZ,00177$
   0153 23                  530 	inc	hl
   0154 34                  531 	inc	(hl)
   0155                     532 00177$:
                            533 ;src/4_Homer.b3.c:70: TIMER++;
   0155 21r00r00            534 	ld	hl, #_TIMER
   0158 34                  535 	inc	(hl)
   0159 20 02               536 	jr	NZ,00178$
   015B 23                  537 	inc	hl
   015C 34                  538 	inc	(hl)
   015D                     539 00178$:
                            540 ;src/4_Homer.b3.c:72: if ((TIMER > 16) && (TIMER < 57)) WX_REG+=4;
   015D 21r00r00            541 	ld	hl, #_TIMER
   0160 3E 10               542 	ld	a, #0x10
   0162 96                  543 	sub	a, (hl)
   0163 23                  544 	inc	hl
   0164 3E 00               545 	ld	a, #0x00
   0166 9E                  546 	sbc	a, (hl)
   0167 30 12               547 	jr	NC,00108$
   0169 21r00r00            548 	ld	hl, #_TIMER
   016C 7E                  549 	ld	a, (hl)
   016D D6 39               550 	sub	a, #0x39
   016F 23                  551 	inc	hl
   0170 7E                  552 	ld	a, (hl)
   0171 DE 00               553 	sbc	a, #0x00
   0173 30 06               554 	jr	NC,00108$
   0175 F0r00               555 	ldh	a, (_WX_REG+0)
   0177 C6 04               556 	add	a, #0x04
   0179 E0r00               557 	ldh	(_WX_REG+0),a
   017B                     558 00108$:
                            559 ;src/4_Homer.b3.c:73: if ((TIMER > 910) && (TIMER < 951)) WX_REG-=4;
   017B 21r00r00            560 	ld	hl, #_TIMER
   017E 3E 8E               561 	ld	a, #0x8e
   0180 96                  562 	sub	a, (hl)
   0181 23                  563 	inc	hl
   0182 3E 03               564 	ld	a, #0x03
   0184 9E                  565 	sbc	a, (hl)
   0185 30 12               566 	jr	NC,00111$
   0187 21r00r00            567 	ld	hl, #_TIMER
   018A 7E                  568 	ld	a, (hl)
   018B D6 B7               569 	sub	a, #0xb7
   018D 23                  570 	inc	hl
   018E 7E                  571 	ld	a, (hl)
   018F DE 03               572 	sbc	a, #0x03
   0191 30 06               573 	jr	NC,00111$
   0193 F0r00               574 	ldh	a, (_WX_REG+0)
   0195 C6 FC               575 	add	a, #0xfc
   0197 E0r00               576 	ldh	(_WX_REG+0),a
   0199                     577 00111$:
                            578 ;src/4_Homer.b3.c:77: move_sprite(3,HSX,128); move_sprite(4,8+HSX,128);
   0199 21r00r00            579 	ld	hl, #_HSX
   019C 46                  580 	ld	b, (hl)
   019D 3E 80               581 	ld	a, #0x80
   019F F5                  582 	push	af
   01A0 33                  583 	inc	sp
   01A1 C5                  584 	push	bc
   01A2 33                  585 	inc	sp
   01A3 3E 03               586 	ld	a, #0x03
   01A5 F5                  587 	push	af
   01A6 33                  588 	inc	sp
   01A7 CDr00r00            589 	call	_move_sprite
   01AA E8 03               590 	add	sp, #3
   01AC 21r00r00            591 	ld	hl, #_HSX
   01AF 7E                  592 	ld	a, (hl)
   01B0 C6 08               593 	add	a, #0x08
   01B2 47                  594 	ld	b, a
   01B3 3E 80               595 	ld	a, #0x80
   01B5 F5                  596 	push	af
   01B6 33                  597 	inc	sp
   01B7 C5                  598 	push	bc
   01B8 33                  599 	inc	sp
   01B9 3E 04               600 	ld	a, #0x04
   01BB F5                  601 	push	af
   01BC 33                  602 	inc	sp
   01BD CDr00r00            603 	call	_move_sprite
   01C0 E8 03               604 	add	sp, #3
                            605 ;src/4_Homer.b3.c:78: move_sprite(5,-8+HSX,144); move_sprite(6,HSX,144);move_sprite(7,8+HSX,144); move_sprite(8,16+HSX,144);
   01C2 21r00r00            606 	ld	hl, #_HSX
   01C5 7E                  607 	ld	a, (hl)
   01C6 C6 F8               608 	add	a, #0xf8
   01C8 47                  609 	ld	b, a
   01C9 3E 90               610 	ld	a, #0x90
   01CB F5                  611 	push	af
   01CC 33                  612 	inc	sp
   01CD C5                  613 	push	bc
   01CE 33                  614 	inc	sp
   01CF 3E 05               615 	ld	a, #0x05
   01D1 F5                  616 	push	af
   01D2 33                  617 	inc	sp
   01D3 CDr00r00            618 	call	_move_sprite
   01D6 E8 03               619 	add	sp, #3
   01D8 21r00r00            620 	ld	hl, #_HSX
   01DB 46                  621 	ld	b, (hl)
   01DC 3E 90               622 	ld	a, #0x90
   01DE F5                  623 	push	af
   01DF 33                  624 	inc	sp
   01E0 C5                  625 	push	bc
   01E1 33                  626 	inc	sp
   01E2 3E 06               627 	ld	a, #0x06
   01E4 F5                  628 	push	af
   01E5 33                  629 	inc	sp
   01E6 CDr00r00            630 	call	_move_sprite
   01E9 E8 03               631 	add	sp, #3
   01EB 21r00r00            632 	ld	hl, #_HSX
   01EE 7E                  633 	ld	a, (hl)
   01EF C6 08               634 	add	a, #0x08
   01F1 47                  635 	ld	b, a
   01F2 3E 90               636 	ld	a, #0x90
   01F4 F5                  637 	push	af
   01F5 33                  638 	inc	sp
   01F6 C5                  639 	push	bc
   01F7 33                  640 	inc	sp
   01F8 3E 07               641 	ld	a, #0x07
   01FA F5                  642 	push	af
   01FB 33                  643 	inc	sp
   01FC CDr00r00            644 	call	_move_sprite
   01FF E8 03               645 	add	sp, #3
   0201 21r00r00            646 	ld	hl, #_HSX
   0204 7E                  647 	ld	a, (hl)
   0205 C6 10               648 	add	a, #0x10
   0207 47                  649 	ld	b, a
   0208 3E 90               650 	ld	a, #0x90
   020A F5                  651 	push	af
   020B 33                  652 	inc	sp
   020C C5                  653 	push	bc
   020D 33                  654 	inc	sp
   020E 3E 08               655 	ld	a, #0x08
   0210 F5                  656 	push	af
   0211 33                  657 	inc	sp
   0212 CDr00r00            658 	call	_move_sprite
   0215 E8 03               659 	add	sp, #3
                            660 ;src/4_Homer.b3.c:80: move_sprite(9,124+HSX,112); move_sprite(10,132+HSX,112);
   0217 21r00r00            661 	ld	hl, #_HSX
   021A 7E                  662 	ld	a, (hl)
   021B C6 7C               663 	add	a, #0x7c
   021D 47                  664 	ld	b, a
   021E 3E 70               665 	ld	a, #0x70
   0220 F5                  666 	push	af
   0221 33                  667 	inc	sp
   0222 C5                  668 	push	bc
   0223 33                  669 	inc	sp
   0224 3E 09               670 	ld	a, #0x09
   0226 F5                  671 	push	af
   0227 33                  672 	inc	sp
   0228 CDr00r00            673 	call	_move_sprite
   022B E8 03               674 	add	sp, #3
   022D 21r00r00            675 	ld	hl, #_HSX
   0230 7E                  676 	ld	a, (hl)
   0231 C6 84               677 	add	a, #0x84
   0233 47                  678 	ld	b, a
   0234 3E 70               679 	ld	a, #0x70
   0236 F5                  680 	push	af
   0237 33                  681 	inc	sp
   0238 C5                  682 	push	bc
   0239 33                  683 	inc	sp
   023A 3E 0A               684 	ld	a, #0x0a
   023C F5                  685 	push	af
   023D 33                  686 	inc	sp
   023E CDr00r00            687 	call	_move_sprite
   0241 E8 03               688 	add	sp, #3
                            689 ;src/4_Homer.b3.c:81: move_sprite(11,116+HSX,128); move_sprite(12,124+HSX,128);move_sprite(13,132+HSX,128); 
   0243 21r00r00            690 	ld	hl, #_HSX
   0246 7E                  691 	ld	a, (hl)
   0247 C6 74               692 	add	a, #0x74
   0249 47                  693 	ld	b, a
   024A 3E 80               694 	ld	a, #0x80
   024C F5                  695 	push	af
   024D 33                  696 	inc	sp
   024E C5                  697 	push	bc
   024F 33                  698 	inc	sp
   0250 3E 0B               699 	ld	a, #0x0b
   0252 F5                  700 	push	af
   0253 33                  701 	inc	sp
   0254 CDr00r00            702 	call	_move_sprite
   0257 E8 03               703 	add	sp, #3
   0259 21r00r00            704 	ld	hl, #_HSX
   025C 7E                  705 	ld	a, (hl)
   025D C6 7C               706 	add	a, #0x7c
   025F 47                  707 	ld	b, a
   0260 3E 80               708 	ld	a, #0x80
   0262 F5                  709 	push	af
   0263 33                  710 	inc	sp
   0264 C5                  711 	push	bc
   0265 33                  712 	inc	sp
   0266 3E 0C               713 	ld	a, #0x0c
   0268 F5                  714 	push	af
   0269 33                  715 	inc	sp
   026A CDr00r00            716 	call	_move_sprite
   026D E8 03               717 	add	sp, #3
   026F 21r00r00            718 	ld	hl, #_HSX
   0272 7E                  719 	ld	a, (hl)
   0273 C6 84               720 	add	a, #0x84
   0275 47                  721 	ld	b, a
   0276 3E 80               722 	ld	a, #0x80
   0278 F5                  723 	push	af
   0279 33                  724 	inc	sp
   027A C5                  725 	push	bc
   027B 33                  726 	inc	sp
   027C 3E 0D               727 	ld	a, #0x0d
   027E F5                  728 	push	af
   027F 33                  729 	inc	sp
   0280 CDr00r00            730 	call	_move_sprite
   0283 E8 03               731 	add	sp, #3
                            732 ;src/4_Homer.b3.c:82: move_sprite(14,108+HSX,144); move_sprite(15,116+HSX,144);move_sprite(16,124+HSX,144);move_sprite(17,132+HSX,144); move_sprite(18,140+HSX,144);
   0285 21r00r00            733 	ld	hl, #_HSX
   0288 7E                  734 	ld	a, (hl)
   0289 C6 6C               735 	add	a, #0x6c
   028B 47                  736 	ld	b, a
   028C 3E 90               737 	ld	a, #0x90
   028E F5                  738 	push	af
   028F 33                  739 	inc	sp
   0290 C5                  740 	push	bc
   0291 33                  741 	inc	sp
   0292 3E 0E               742 	ld	a, #0x0e
   0294 F5                  743 	push	af
   0295 33                  744 	inc	sp
   0296 CDr00r00            745 	call	_move_sprite
   0299 E8 03               746 	add	sp, #3
   029B 21r00r00            747 	ld	hl, #_HSX
   029E 7E                  748 	ld	a, (hl)
   029F C6 74               749 	add	a, #0x74
   02A1 47                  750 	ld	b, a
   02A2 3E 90               751 	ld	a, #0x90
   02A4 F5                  752 	push	af
   02A5 33                  753 	inc	sp
   02A6 C5                  754 	push	bc
   02A7 33                  755 	inc	sp
   02A8 3E 0F               756 	ld	a, #0x0f
   02AA F5                  757 	push	af
   02AB 33                  758 	inc	sp
   02AC CDr00r00            759 	call	_move_sprite
   02AF E8 03               760 	add	sp, #3
   02B1 21r00r00            761 	ld	hl, #_HSX
   02B4 7E                  762 	ld	a, (hl)
   02B5 C6 7C               763 	add	a, #0x7c
   02B7 47                  764 	ld	b, a
   02B8 3E 90               765 	ld	a, #0x90
   02BA F5                  766 	push	af
   02BB 33                  767 	inc	sp
   02BC C5                  768 	push	bc
   02BD 33                  769 	inc	sp
   02BE 3E 10               770 	ld	a, #0x10
   02C0 F5                  771 	push	af
   02C1 33                  772 	inc	sp
   02C2 CDr00r00            773 	call	_move_sprite
   02C5 E8 03               774 	add	sp, #3
   02C7 21r00r00            775 	ld	hl, #_HSX
   02CA 7E                  776 	ld	a, (hl)
   02CB C6 84               777 	add	a, #0x84
   02CD 47                  778 	ld	b, a
   02CE 3E 90               779 	ld	a, #0x90
   02D0 F5                  780 	push	af
   02D1 33                  781 	inc	sp
   02D2 C5                  782 	push	bc
   02D3 33                  783 	inc	sp
   02D4 3E 11               784 	ld	a, #0x11
   02D6 F5                  785 	push	af
   02D7 33                  786 	inc	sp
   02D8 CDr00r00            787 	call	_move_sprite
   02DB E8 03               788 	add	sp, #3
   02DD 21r00r00            789 	ld	hl, #_HSX
   02E0 7E                  790 	ld	a, (hl)
   02E1 C6 8C               791 	add	a, #0x8c
   02E3 47                  792 	ld	b, a
   02E4 3E 90               793 	ld	a, #0x90
   02E6 F5                  794 	push	af
   02E7 33                  795 	inc	sp
   02E8 C5                  796 	push	bc
   02E9 33                  797 	inc	sp
   02EA 3E 12               798 	ld	a, #0x12
   02EC F5                  799 	push	af
   02ED 33                  800 	inc	sp
   02EE CDr00r00            801 	call	_move_sprite
   02F1 E8 03               802 	add	sp, #3
                            803 ;src/4_Homer.b3.c:84: move_sprite(19,24+HSX1,24);move_sprite(20,32+HSX1,24);move_sprite(21,40+HSX1,24);
   02F3 21r02r00            804 	ld	hl, #_HSX1
   02F6 7E                  805 	ld	a, (hl)
   02F7 C6 18               806 	add	a, #0x18
   02F9 47                  807 	ld	b, a
   02FA 3E 18               808 	ld	a, #0x18
   02FC F5                  809 	push	af
   02FD 33                  810 	inc	sp
   02FE C5                  811 	push	bc
   02FF 33                  812 	inc	sp
   0300 3E 13               813 	ld	a, #0x13
   0302 F5                  814 	push	af
   0303 33                  815 	inc	sp
   0304 CDr00r00            816 	call	_move_sprite
   0307 E8 03               817 	add	sp, #3
   0309 21r02r00            818 	ld	hl, #_HSX1
   030C 7E                  819 	ld	a, (hl)
   030D C6 20               820 	add	a, #0x20
   030F 47                  821 	ld	b, a
   0310 3E 18               822 	ld	a, #0x18
   0312 F5                  823 	push	af
   0313 33                  824 	inc	sp
   0314 C5                  825 	push	bc
   0315 33                  826 	inc	sp
   0316 3E 14               827 	ld	a, #0x14
   0318 F5                  828 	push	af
   0319 33                  829 	inc	sp
   031A CDr00r00            830 	call	_move_sprite
   031D E8 03               831 	add	sp, #3
   031F 21r02r00            832 	ld	hl, #_HSX1
   0322 7E                  833 	ld	a, (hl)
   0323 C6 28               834 	add	a, #0x28
   0325 47                  835 	ld	b, a
   0326 3E 18               836 	ld	a, #0x18
   0328 F5                  837 	push	af
   0329 33                  838 	inc	sp
   032A C5                  839 	push	bc
   032B 33                  840 	inc	sp
   032C 3E 15               841 	ld	a, #0x15
   032E F5                  842 	push	af
   032F 33                  843 	inc	sp
   0330 CDr00r00            844 	call	_move_sprite
   0333 E8 03               845 	add	sp, #3
                            846 ;src/4_Homer.b3.c:85: move_sprite(22,16+HSX1,40);move_sprite(23,24+HSX1,40);move_sprite(24,32+HSX1,40);move_sprite(25,40+HSX1,40);move_sprite(26,48+HSX1,40);
   0335 21r02r00            847 	ld	hl, #_HSX1
   0338 7E                  848 	ld	a, (hl)
   0339 C6 10               849 	add	a, #0x10
   033B 47                  850 	ld	b, a
   033C 3E 28               851 	ld	a, #0x28
   033E F5                  852 	push	af
   033F 33                  853 	inc	sp
   0340 C5                  854 	push	bc
   0341 33                  855 	inc	sp
   0342 3E 16               856 	ld	a, #0x16
   0344 F5                  857 	push	af
   0345 33                  858 	inc	sp
   0346 CDr00r00            859 	call	_move_sprite
   0349 E8 03               860 	add	sp, #3
   034B 21r02r00            861 	ld	hl, #_HSX1
   034E 7E                  862 	ld	a, (hl)
   034F C6 18               863 	add	a, #0x18
   0351 47                  864 	ld	b, a
   0352 3E 28               865 	ld	a, #0x28
   0354 F5                  866 	push	af
   0355 33                  867 	inc	sp
   0356 C5                  868 	push	bc
   0357 33                  869 	inc	sp
   0358 3E 17               870 	ld	a, #0x17
   035A F5                  871 	push	af
   035B 33                  872 	inc	sp
   035C CDr00r00            873 	call	_move_sprite
   035F E8 03               874 	add	sp, #3
   0361 21r02r00            875 	ld	hl, #_HSX1
   0364 7E                  876 	ld	a, (hl)
   0365 C6 20               877 	add	a, #0x20
   0367 47                  878 	ld	b, a
   0368 3E 28               879 	ld	a, #0x28
   036A F5                  880 	push	af
   036B 33                  881 	inc	sp
   036C C5                  882 	push	bc
   036D 33                  883 	inc	sp
   036E 3E 18               884 	ld	a, #0x18
   0370 F5                  885 	push	af
   0371 33                  886 	inc	sp
   0372 CDr00r00            887 	call	_move_sprite
   0375 E8 03               888 	add	sp, #3
   0377 21r02r00            889 	ld	hl, #_HSX1
   037A 7E                  890 	ld	a, (hl)
   037B C6 28               891 	add	a, #0x28
   037D 47                  892 	ld	b, a
   037E 3E 28               893 	ld	a, #0x28
   0380 F5                  894 	push	af
   0381 33                  895 	inc	sp
   0382 C5                  896 	push	bc
   0383 33                  897 	inc	sp
   0384 3E 19               898 	ld	a, #0x19
   0386 F5                  899 	push	af
   0387 33                  900 	inc	sp
   0388 CDr00r00            901 	call	_move_sprite
   038B E8 03               902 	add	sp, #3
   038D 21r02r00            903 	ld	hl, #_HSX1
   0390 7E                  904 	ld	a, (hl)
   0391 C6 30               905 	add	a, #0x30
   0393 47                  906 	ld	b, a
   0394 3E 28               907 	ld	a, #0x28
   0396 F5                  908 	push	af
   0397 33                  909 	inc	sp
   0398 C5                  910 	push	bc
   0399 33                  911 	inc	sp
   039A 3E 1A               912 	ld	a, #0x1a
   039C F5                  913 	push	af
   039D 33                  914 	inc	sp
   039E CDr00r00            915 	call	_move_sprite
   03A1 E8 03               916 	add	sp, #3
                            917 ;src/4_Homer.b3.c:87: move_sprite(27,152+HSX1,40); move_sprite(28,160+HSX1,40);
   03A3 21r02r00            918 	ld	hl, #_HSX1
   03A6 7E                  919 	ld	a, (hl)
   03A7 C6 98               920 	add	a, #0x98
   03A9 47                  921 	ld	b, a
   03AA 3E 28               922 	ld	a, #0x28
   03AC F5                  923 	push	af
   03AD 33                  924 	inc	sp
   03AE C5                  925 	push	bc
   03AF 33                  926 	inc	sp
   03B0 3E 1B               927 	ld	a, #0x1b
   03B2 F5                  928 	push	af
   03B3 33                  929 	inc	sp
   03B4 CDr00r00            930 	call	_move_sprite
   03B7 E8 03               931 	add	sp, #3
   03B9 21r02r00            932 	ld	hl, #_HSX1
   03BC 7E                  933 	ld	a, (hl)
   03BD C6 A0               934 	add	a, #0xa0
   03BF 47                  935 	ld	b, a
   03C0 3E 28               936 	ld	a, #0x28
   03C2 F5                  937 	push	af
   03C3 33                  938 	inc	sp
   03C4 C5                  939 	push	bc
   03C5 33                  940 	inc	sp
   03C6 3E 1C               941 	ld	a, #0x1c
   03C8 F5                  942 	push	af
   03C9 33                  943 	inc	sp
   03CA CDr00r00            944 	call	_move_sprite
   03CD E8 03               945 	add	sp, #3
                            946 ;src/4_Homer.b3.c:88: move_sprite(29,144+HSX1,56);move_sprite(30,152+HSX1,56);move_sprite(31,160+HSX1,56);move_sprite(32,168+HSX1,56);
   03CF 21r02r00            947 	ld	hl, #_HSX1
   03D2 7E                  948 	ld	a, (hl)
   03D3 C6 90               949 	add	a, #0x90
   03D5 47                  950 	ld	b, a
   03D6 3E 38               951 	ld	a, #0x38
   03D8 F5                  952 	push	af
   03D9 33                  953 	inc	sp
   03DA C5                  954 	push	bc
   03DB 33                  955 	inc	sp
   03DC 3E 1D               956 	ld	a, #0x1d
   03DE F5                  957 	push	af
   03DF 33                  958 	inc	sp
   03E0 CDr00r00            959 	call	_move_sprite
   03E3 E8 03               960 	add	sp, #3
   03E5 21r02r00            961 	ld	hl, #_HSX1
   03E8 7E                  962 	ld	a, (hl)
   03E9 C6 98               963 	add	a, #0x98
   03EB 47                  964 	ld	b, a
   03EC 3E 38               965 	ld	a, #0x38
   03EE F5                  966 	push	af
   03EF 33                  967 	inc	sp
   03F0 C5                  968 	push	bc
   03F1 33                  969 	inc	sp
   03F2 3E 1E               970 	ld	a, #0x1e
   03F4 F5                  971 	push	af
   03F5 33                  972 	inc	sp
   03F6 CDr00r00            973 	call	_move_sprite
   03F9 E8 03               974 	add	sp, #3
   03FB 21r02r00            975 	ld	hl, #_HSX1
   03FE 7E                  976 	ld	a, (hl)
   03FF C6 A0               977 	add	a, #0xa0
   0401 47                  978 	ld	b, a
   0402 3E 38               979 	ld	a, #0x38
   0404 F5                  980 	push	af
   0405 33                  981 	inc	sp
   0406 C5                  982 	push	bc
   0407 33                  983 	inc	sp
   0408 3E 1F               984 	ld	a, #0x1f
   040A F5                  985 	push	af
   040B 33                  986 	inc	sp
   040C CDr00r00            987 	call	_move_sprite
   040F E8 03               988 	add	sp, #3
   0411 21r02r00            989 	ld	hl, #_HSX1
   0414 7E                  990 	ld	a, (hl)
   0415 C6 A8               991 	add	a, #0xa8
   0417 47                  992 	ld	b, a
   0418 3E 38               993 	ld	a, #0x38
   041A F5                  994 	push	af
   041B 33                  995 	inc	sp
   041C C5                  996 	push	bc
   041D 33                  997 	inc	sp
   041E 3E 20               998 	ld	a, #0x20
   0420 F5                  999 	push	af
   0421 33                 1000 	inc	sp
   0422 CDr00r00           1001 	call	_move_sprite
   0425 E8 03              1002 	add	sp, #3
                           1003 ;src/4_Homer.b3.c:89: move_sprite(33,136+HSX1,72);move_sprite(34,144+HSX1,72);move_sprite(35,152+HSX1,72);move_sprite(36,160+HSX1,72);move_sprite(37,168+HSX1,72); move_sprite(38,176+HSX1,72);
   0427 21r02r00           1004 	ld	hl, #_HSX1
   042A 7E                 1005 	ld	a, (hl)
   042B C6 88              1006 	add	a, #0x88
   042D 47                 1007 	ld	b, a
   042E 3E 48              1008 	ld	a, #0x48
   0430 F5                 1009 	push	af
   0431 33                 1010 	inc	sp
   0432 C5                 1011 	push	bc
   0433 33                 1012 	inc	sp
   0434 3E 21              1013 	ld	a, #0x21
   0436 F5                 1014 	push	af
   0437 33                 1015 	inc	sp
   0438 CDr00r00           1016 	call	_move_sprite
   043B E8 03              1017 	add	sp, #3
   043D 21r02r00           1018 	ld	hl, #_HSX1
   0440 7E                 1019 	ld	a, (hl)
   0441 C6 90              1020 	add	a, #0x90
   0443 47                 1021 	ld	b, a
   0444 3E 48              1022 	ld	a, #0x48
   0446 F5                 1023 	push	af
   0447 33                 1024 	inc	sp
   0448 C5                 1025 	push	bc
   0449 33                 1026 	inc	sp
   044A 3E 22              1027 	ld	a, #0x22
   044C F5                 1028 	push	af
   044D 33                 1029 	inc	sp
   044E CDr00r00           1030 	call	_move_sprite
   0451 E8 03              1031 	add	sp, #3
   0453 21r02r00           1032 	ld	hl, #_HSX1
   0456 7E                 1033 	ld	a, (hl)
   0457 C6 98              1034 	add	a, #0x98
   0459 47                 1035 	ld	b, a
   045A 3E 48              1036 	ld	a, #0x48
   045C F5                 1037 	push	af
   045D 33                 1038 	inc	sp
   045E C5                 1039 	push	bc
   045F 33                 1040 	inc	sp
   0460 3E 23              1041 	ld	a, #0x23
   0462 F5                 1042 	push	af
   0463 33                 1043 	inc	sp
   0464 CDr00r00           1044 	call	_move_sprite
   0467 E8 03              1045 	add	sp, #3
   0469 21r02r00           1046 	ld	hl, #_HSX1
   046C 7E                 1047 	ld	a, (hl)
   046D C6 A0              1048 	add	a, #0xa0
   046F 47                 1049 	ld	b, a
   0470 3E 48              1050 	ld	a, #0x48
   0472 F5                 1051 	push	af
   0473 33                 1052 	inc	sp
   0474 C5                 1053 	push	bc
   0475 33                 1054 	inc	sp
   0476 3E 24              1055 	ld	a, #0x24
   0478 F5                 1056 	push	af
   0479 33                 1057 	inc	sp
   047A CDr00r00           1058 	call	_move_sprite
   047D E8 03              1059 	add	sp, #3
   047F 21r02r00           1060 	ld	hl, #_HSX1
   0482 7E                 1061 	ld	a, (hl)
   0483 C6 A8              1062 	add	a, #0xa8
   0485 47                 1063 	ld	b, a
   0486 3E 48              1064 	ld	a, #0x48
   0488 F5                 1065 	push	af
   0489 33                 1066 	inc	sp
   048A C5                 1067 	push	bc
   048B 33                 1068 	inc	sp
   048C 3E 25              1069 	ld	a, #0x25
   048E F5                 1070 	push	af
   048F 33                 1071 	inc	sp
   0490 CDr00r00           1072 	call	_move_sprite
   0493 E8 03              1073 	add	sp, #3
   0495 21r02r00           1074 	ld	hl, #_HSX1
   0498 7E                 1075 	ld	a, (hl)
   0499 C6 B0              1076 	add	a, #0xb0
   049B 47                 1077 	ld	b, a
   049C 3E 48              1078 	ld	a, #0x48
   049E F5                 1079 	push	af
   049F 33                 1080 	inc	sp
   04A0 C5                 1081 	push	bc
   04A1 33                 1082 	inc	sp
   04A2 3E 26              1083 	ld	a, #0x26
   04A4 F5                 1084 	push	af
   04A5 33                 1085 	inc	sp
   04A6 CDr00r00           1086 	call	_move_sprite
   04A9 E8 03              1087 	add	sp, #3
                           1088 ;src/4_Homer.b3.c:91: move_sprite(39,-20+HSX1,60); 	
   04AB 21r02r00           1089 	ld	hl, #_HSX1
   04AE 7E                 1090 	ld	a, (hl)
   04AF C6 EC              1091 	add	a, #0xec
   04B1 47                 1092 	ld	b, a
   04B2 3E 3C              1093 	ld	a, #0x3c
   04B4 F5                 1094 	push	af
   04B5 33                 1095 	inc	sp
   04B6 C5                 1096 	push	bc
   04B7 33                 1097 	inc	sp
   04B8 3E 27              1098 	ld	a, #0x27
   04BA F5                 1099 	push	af
   04BB 33                 1100 	inc	sp
   04BC CDr00r00           1101 	call	_move_sprite
   04BF E8 03              1102 	add	sp, #3
                           1103 ;src/4_Homer.b3.c:94: if (TIMER == 960){
   04C1 21r00r00           1104 	ld	hl, #_TIMER
   04C4 7E                 1105 	ld	a, (hl)
   04C5 D6 C0              1106 	sub	a, #0xc0
   04C7 C0                 1107 	ret	NZ
   04C8 23                 1108 	inc	hl
   04C9 7E                 1109 	ld	a, (hl)
   04CA D6 03              1110 	sub	a, #0x03
   04CC C0                 1111 	ret	NZ
                           1112 ;src/4_Homer.b3.c:95: TIMER = 0;
   04CD 21r00r00           1113 	ld	hl, #_TIMER
   04D0 36 00              1114 	ld	(hl), #0x00
   04D2 23                 1115 	inc	hl
   04D3 36 00              1116 	ld	(hl), #0x00
                           1117 ;src/4_Homer.b3.c:96: Scene++;
   04D5 21r00r00           1118 	ld	hl, #_Scene
   04D8 34                 1119 	inc	(hl)
                           1120 ;src/4_Homer.b3.c:97: for (v = 0;v<40;v++)move_sprite(v,200,200);
   04D9 21r00r00           1121 	ld	hl, #_v
   04DC 36 00              1122 	ld	(hl), #0x00
   04DE                    1123 00116$:
   04DE 3E C8              1124 	ld	a, #0xc8
   04E0 F5                 1125 	push	af
   04E1 33                 1126 	inc	sp
   04E2 3E C8              1127 	ld	a, #0xc8
   04E4 F5                 1128 	push	af
   04E5 33                 1129 	inc	sp
   04E6 21r00r00           1130 	ld	hl, #_v
   04E9 7E                 1131 	ld	a, (hl)
   04EA F5                 1132 	push	af
   04EB 33                 1133 	inc	sp
   04EC CDr00r00           1134 	call	_move_sprite
   04EF E8 03              1135 	add	sp, #3
   04F1 21r00r00           1136 	ld	hl, #_v
   04F4 34                 1137 	inc	(hl)
   04F5 7E                 1138 	ld	a, (hl)
   04F6 D6 28              1139 	sub	a, #0x28
   04F8 38 E4              1140 	jr	C,00116$
                           1141 ;src/4_Homer.b3.c:99: }
   04FA C9                 1142 	ret
                           1143 	.area _CODE_3
                           1144 	.area _CABS (ABS)
